((dp0
(lp1
(S'SortedVals'
p2
S'Sample of values'
p3
S'vector whose length varies between measurements'
p4
tp5
a(S'UnDef'
p6
S'sample of number of undefs per row'
p7
g4
tp8
a(S'mean'
p9
S'mean value'
p10
(ttp11
a(S'std'
p12
g12
(ttp13
a(S'low100'
p14
S'bottom 1%'
p15
(ttp16
a(S'high100'
p17
S'top 1%'
p18
(ttp19
a(S'low1000'
p20
S'bottom 0.1%'
p21
(ttp22
a(S'high1000'
p23
S'top 0.1%'
p24
(ttp25
a(S'E'
p26
S'Sum of values per day'
p27
(I365
tp28
tp29
a(S'NE'
p30
S'count of values per day'
p31
(I365
tp32
tp33
a(S'Mean'
p34
S'E/NE'
p35
(I365
tp36
tp37
a(S'O'
p38
S'Sum of outer products'
p39
(I365
I365
tp40
tp41
a(S'NO'
p42
S'counts for outer products'
p43
(I365
I365
tp44
tp45
a(S'Cov'
p46
S'O/NO'
p47
(I365
I365
tp48
tp49
a(S'Var'
p50
S'The variance per day = diagonal of Cov'
p51
(I365
tp52
tp53
a(S'eigval'
p54
S'PCA eigen-values'
p55
(I365
tp56
tp57
a(S'eigvec'
p58
S'PCA eigen-vectors'
p59
(I365
I365
tp60
tp61
atp62
.